(lp0
(dp1
S'date'
p2
cdatetime
datetime
p3
(S'\x07\xe0\t\x1e\x00\x00\x00\x00\x00\x00'
p4
tp5
Rp6
sS'href'
p7
S'/fr/d-immobilier-immobilier-locations-gen%c3%a8ve--418/au-coeur-de-plainpalais-parking--16739790.aspx?loc=1205+gen%c3%a8ve&aidl=868,15222&dlf=1&view=2&fcid=418'
p8
sS'ctl00_phlContent_ResList_ctlDetail_ctlAdvertList_ctl13_divPrice'
p9
S'CHF 260.\xe2\x80\x93'
p10
sa(dp11
S'ctl00_phlContent_ResList_ctlDetail_ctlAdvertList_ctl12_divPrice'
p12
S'CHF 260.\xe2\x80\x93'
p13
sg2
g3
(S'\x07\xe1\x06\x08\x00\x00\x00\x00\x00\x00'
p14
tp15
Rp16
sg7
S'/fr/d-immobilier-immobilier-locations-gen%c3%a8ve--418/au-coeur-de-plaipalais-parking-souterrain--19846980.aspx?loc=1205+gen%c3%a8ve&aidl=868,15222&dlf=1&view=2&fcid=418'
p17
sa(dp18
g2
g3
(S'\x07\xe2\x08\x03\x00\x00\x00\x00\x00\x00'
p19
tp20
Rp21
sS'ctl00_phlContent_ResList_ctlDetail_ctlAdvertList_ctl11_divPrice'
p22
S'CHF 300.\xe2\x80\x93'
p23
sg7
S'/fr/d-immobilier-immobilier-locations-gen%c3%a8ve--418/parking-int%c3%a9rieur-au-centre-ville--25323537.aspx?loc=1205+gen%c3%a8ve&aidl=868,15222&dlf=1&view=2&fcid=418'
p24
sa(dp25
g2
g3
(S'\x07\xe2\x08\x06\x00\x00\x00\x00\x00\x00'
p26
tp27
Rp28
sS'ctl00_phlContent_ResList_ctlDetail_ctlAdvertList_ctl10_divPrice'
p29
S'CHF 70.\xe2\x80\x93'
p30
sg7
S'/fr/d-immobilier-immobilier-locations-gen%c3%a8ve--418/parking-moto--25353444.aspx?loc=1205+gen%c3%a8ve&aidl=868,15222&dlf=1&view=2&fcid=418'
p31
sa(dp32
g2
g3
(S'\x07\xe2\x0b\x01\x00\x00\x00\x00\x00\x00'
p33
tp34
Rp35
sg7
S'/fr/d-immobilier-immobilier-locations-gen%c3%a8ve--418/box-ferme-garage-ferm%c3%a9-proche-h%c3%b4pital--26490465.aspx?loc=1205+gen%c3%a8ve&aidl=868,15222&dlf=1&view=2&fcid=418'
p36
sS'ctl00_phlContent_ResList_ctlDetail_ctlAdvertList_ctl09_divPrice'
p37
S'CHF 250.\xe2\x80\x93'
p38
sa(dp39
g2
g3
(S'\x07\xe2\x0c\x1a\x00\x00\x00\x00\x00\x00'
p40
tp41
Rp42
sS'ctl00_phlContent_ResList_ctlDetail_ctlAdvertList_ctl08_divPrice'
p43
S'Prix sur demande'
p44
sg7
S"/fr/d-immobilier-immobilier-locations-gen%c3%a8ve--418/places-de-parking-%c3%a0-boulevard-du-pont-d'arve--27169358.aspx?loc=1205+gen%c3%a8ve&aidl=868,15222&dlf=1&view=2&fcid=418"
p45
sa(dp46
g2
g3
(S'\x07\xe3\x01\x07\x00\x00\x00\x00\x00\x00'
p47
tp48
Rp49
sS'ctl00_phlContent_ResList_ctlDetail_ctlAdvertList_ctl07_divPrice'
p50
S'CHF 300.\xe2\x80\x93'
p51
sg7
S'/fr/d-immobilier-immobilier-locations-gen%c3%a8ve--418/place-de-parking-int%c3%a9rieure-1205--27304664.aspx?loc=1205+gen%c3%a8ve&aidl=868,15222&dlf=1&view=2&fcid=418'
p52
sa(dp53
g2
g3
(S'\x07\xe3\x01\x10\x00\x00\x00\x00\x00\x00'
p54
tp55
Rp56
sS'ctl00_phlContent_ResList_ctlDetail_ctlAdvertList_ctl06_divPrice'
p57
S'CHF 200.\xe2\x80\x93'
p58
sg7
S'/fr/d-immobilier-immobilier-locations-gen%c3%a8ve--418/place-de-parking-couverte--27424594.aspx?loc=1205+gen%c3%a8ve&aidl=868,15222&dlf=1&view=2&fcid=418'
p59
sa(dp60
S'ctl00_phlContent_ResList_ctlDetail_ctlAdvertList_ctl05_divPrice'
p61
S'CHF 120.\xe2\x80\x93'
p62
sg2
g3
(S'\x07\xe3\x01\x12\x00\x00\x00\x00\x00\x00'
p63
tp64
Rp65
sg7
S'/fr/d-immobilier-immobilier-locations-gen%c3%a8ve--418/place-de-parc-quartier-ch%c3%aane-bourg--27085019.aspx?loc=1205+gen%c3%a8ve&aidl=868,15222&dlf=1&view=2&fcid=418'
p66
sa(dp67
g2
g3
(S'\x07\xe3\x01\x17\x00\x00\x00\x00\x00\x00'
p68
tp69
Rp70
sg7
S'/fr/d-immobilier-immobilier-locations-gen%c3%a8ve--418/location-place-de-parking--27522229.aspx?loc=1205+gen%c3%a8ve&aidl=868,15222&dlf=1&view=2&fcid=418'
p71
sS'ctl00_phlContent_ResList_ctlDetail_ctlAdvertList_ctl04_divPrice'
p72
S'CHF 200.\xe2\x80\x93'
p73
sa(dp74
g2
g3
(S'\x07\xe3\x01\x1d\x00\x00\x00\x00\x00\x00'
p75
tp76
Rp77
sg7
S'/fr/d-immobilier-immobilier-locations-gen%c3%a8ve--418/place-de-parking-couverte-garage-proche-hug-urgent--27603880.aspx?loc=1205+gen%c3%a8ve&aidl=868,15222&dlf=1&view=2&fcid=418'
p78
sS'ctl00_phlContent_ResList_ctlDetail_ctlAdvertList_ctl03_divPrice'
p79
S'CHF 300.\xe2\x80\x93'
p80
sa(dp81
g2
g3
(S'\x07\xe3\x02\x05\x00\x00\x00\x00\x00\x00'
p82
tp83
Rp84
sg7
S'/fr/d-immobilier-immobilier-locations-gen%c3%a8ve--418/place-de-parking--27703032.aspx?loc=1205+gen%c3%a8ve&aidl=868,15222&dlf=1&view=2&fcid=418'
p85
sS'ctl00_phlContent_ResList_ctlDetail_ctlAdvertList_ctl02_divPrice'
p86
S'CHF 280.\xe2\x80\x93'
p87
sa(dp88
g2
g3
(S'\x07\xe3\x02\n\x00\x00\x00\x00\x00\x00'
p89
tp90
Rp91
sg7
S'/fr/d-immobilier-immobilier-locations-gen%c3%a8ve--418/rue-de-l%60aubepine-24-1205-geneve-150chf--27783146.aspx?loc=1205+gen%c3%a8ve&aidl=868,15222&dlf=1&view=2&fcid=418'
p92
sS'ctl00_phlContent_ResList_ctlDetail_ctlAdvertList_ctl00_divPrice'
p93
S'CHF 150.\xe2\x80\x93'
p94
sa(dp95
g2
g3
(S'\x07\xe3\x02\n\x00\x00\x00\x00\x00\x00'
p96
tp97
Rp98
sg7
S'/fr/d-immobilier-immobilier-locations-gen%c3%a8ve--418/votre-prochaine-place-de-parking-au-centre-ville--27769060.aspx?loc=1205+gen%c3%a8ve&aidl=868,15222&dlf=1&view=2&fcid=418'
p99
sS'ctl00_phlContent_ResList_ctlDetail_ctlAdvertList_ctl01_divPrice'
p100
S'CHF 250.\xe2\x80\x93'
p101
sa.